target datalayout = "e-m:e-p270:32:32-p271:32:32-p272:64:64-i64:64-i128:128-f80:128-n8:16:32:64-S128"
target triple = "x86_64-unknown-linux-gnu"

%"class.arrow::ArrayBuilder" = type { ptr, ptr, i64, %"class.arrow::TypedBufferBuilder", i64, i64, i64, %"class.std::vector" }
%"class.arrow::TypedBufferBuilder" = type { %"class.arrow::BufferBuilder", i64, i64 }
%"class.arrow::BufferBuilder" = type { %"class.std::shared_ptr.3", ptr, ptr, i64, i64, i64 }
%"class.std::shared_ptr.3" = type { %"class.std::__shared_ptr.4" }
%"class.std::__shared_ptr.4" = type { ptr, %"class.std::__shared_count" }
%"class.std::__shared_count" = type { ptr }
%"class.std::vector" = type { %"struct.std::_Vector_base" }
%"struct.std::_Vector_base" = type { %"struct.std::_Vector_base<std::shared_ptr<arrow::ArrayBuilder>, std::allocator<std::shared_ptr<arrow::ArrayBuilder>>>::_Vector_impl" }
%"struct.std::_Vector_base<std::shared_ptr<arrow::ArrayBuilder>, std::allocator<std::shared_ptr<arrow::ArrayBuilder>>>::_Vector_impl" = type { %"struct.std::_Vector_base<std::shared_ptr<arrow::ArrayBuilder>, std::allocator<std::shared_ptr<arrow::ArrayBuilder>>>::_Vector_impl_data" }
%"struct.std::_Vector_base<std::shared_ptr<arrow::ArrayBuilder>, std::allocator<std::shared_ptr<arrow::ArrayBuilder>>>::_Vector_impl_data" = type { ptr, ptr, ptr }
%"class.std::shared_ptr" = type { %"class.std::__shared_ptr" }
%"class.std::__shared_ptr" = type { ptr, %"class.std::__shared_count" }
%"class.arrow::RunEndEncodedBuilder" = type { %"class.arrow::ArrayBuilder", %"class.std::shared_ptr.21", ptr, i64 }
%"class.std::shared_ptr.21" = type { %"class.std::__shared_ptr.22" }
%"class.std::__shared_ptr.22" = type { ptr, %"class.std::__shared_count" }

; Function Attrs: mustprogress nounwind uwtable
define linkonce_odr noundef ptr @_ZNKSt12__shared_ptrIN5arrow12ArrayBuilderELN9__gnu_cxx12_Lock_policyE2EE3getEv(ptr noundef nonnull align 8 dereferenceable(16) %this) #1 comdat align 2 {
entry:
  %this.addr = alloca ptr, align 8
  store ptr %this, ptr %this.addr, align 8
  %this1 = load ptr, ptr %this.addr, align 8
  %_M_ptr = getelementptr inbounds %"class.std::__shared_ptr", ptr %this1, i32 0, i32 0
  %0 = load ptr, ptr %_M_ptr, align 8
  ret ptr %0
}

; Function Attrs: mustprogress nounwind uwtable
define linkonce_odr noundef ptr @_ZNKSt19__shared_ptr_accessIN5arrow12ArrayBuilderELN9__gnu_cxx12_Lock_policyE2ELb0ELb0EE6_M_getEv(ptr noundef nonnull align 1 dereferenceable(1) %this) #1 comdat align 2 {
entry:
  %this.addr = alloca ptr, align 8
  store ptr %this, ptr %this.addr, align 8
  %this1 = load ptr, ptr %this.addr, align 8
  %call = call noundef ptr @_ZNKSt12__shared_ptrIN5arrow12ArrayBuilderELN9__gnu_cxx12_Lock_policyE2EE3getEv(ptr noundef nonnull align 8 dereferenceable(16) %this1) #13
  ret ptr %call
}

; Function Attrs: mustprogress nounwind uwtable
define linkonce_odr noundef i64 @_ZNK5arrow12ArrayBuilder8capacityEv(ptr noundef nonnull align 8 dereferenceable(144) %this) #1 comdat align 2 {
entry:
  %this.addr = alloca ptr, align 8
  store ptr %this, ptr %this.addr, align 8
  %this1 = load ptr, ptr %this.addr, align 8
  %capacity_ = getelementptr inbounds %"class.arrow::ArrayBuilder", ptr %this1, i32 0, i32 6
  %0 = load i64, ptr %capacity_, align 8
  ret i64 %0
}

; Function Attrs: mustprogress nounwind uwtable
define linkonce_odr noundef nonnull align 8 dereferenceable(144) ptr @_ZNKSt19__shared_ptr_accessIN5arrow12ArrayBuilderELN9__gnu_cxx12_Lock_policyE2ELb0ELb0EEdeEv(ptr noundef nonnull align 1 dereferenceable(1) %this) #1 comdat align 2 {
entry:
  %this.addr = alloca ptr, align 8
  store ptr %this, ptr %this.addr, align 8
  %this1 = load ptr, ptr %this.addr, align 8
  br label %do.body

do.body:                                          ; preds = %entry
  br label %do.cond

do.cond:                                          ; preds = %do.body
  br label %do.end

do.end:                                           ; preds = %do.cond
  %call = call noundef ptr @_ZNKSt19__shared_ptr_accessIN5arrow12ArrayBuilderELN9__gnu_cxx12_Lock_policyE2ELb0ELb0EE6_M_getEv(ptr noundef nonnull align 1 dereferenceable(1) %this1) #13
  ret ptr %call
}

; Function Attrs: mustprogress nounwind uwtable
define linkonce_odr noundef nonnull align 8 dereferenceable(16) ptr @_ZNSt6vectorISt10shared_ptrIN5arrow12ArrayBuilderEESaIS3_EEixEm(ptr noundef nonnull align 8 dereferenceable(24) %this, i64 noundef %__n) #1 comdat align 2 {
entry:
  %this.addr = alloca ptr, align 8
  %__n.addr = alloca i64, align 8
  store ptr %this, ptr %this.addr, align 8
  store i64 %__n, ptr %__n.addr, align 8
  %this1 = load ptr, ptr %this.addr, align 8
  %_M_impl = getelementptr inbounds %"struct.std::_Vector_base", ptr %this1, i32 0, i32 0
  %_M_start = getelementptr inbounds %"struct.std::_Vector_base<std::shared_ptr<arrow::ArrayBuilder>, std::allocator<std::shared_ptr<arrow::ArrayBuilder>>>::_Vector_impl_data", ptr %_M_impl, i32 0, i32 0
  %0 = load ptr, ptr %_M_start, align 8
  %1 = load i64, ptr %__n.addr, align 8
  %add.ptr = getelementptr inbounds %"class.std::shared_ptr", ptr %0, i64 %1
  ret ptr %add.ptr
}

; Function Attrs: mustprogress nounwind uwtable
define linkonce_odr void @_ZN5arrow20RunEndEncodedBuilder16UpdateDimensionsEll(ptr noundef nonnull align 8 dereferenceable(176) %this, i64 noundef %committed_logical_length, i64 noundef %open_run_length) #1 comdat align 2 {
entry:
  %this.addr = alloca ptr, align 8
  %committed_logical_length.addr = alloca i64, align 8
  %open_run_length.addr = alloca i64, align 8
  store ptr %this, ptr %this.addr, align 8
  store i64 %committed_logical_length, ptr %committed_logical_length.addr, align 8
  store i64 %open_run_length, ptr %open_run_length.addr, align 8
  %this1 = load ptr, ptr %this.addr, align 8
  %call = call noundef nonnull align 8 dereferenceable(144) ptr @_ZN5arrow20RunEndEncodedBuilder15run_end_builderEv(ptr noundef nonnull align 8 dereferenceable(176) %this1)
  %call2 = call noundef i64 @_ZNK5arrow12ArrayBuilder8capacityEv(ptr noundef nonnull align 8 dereferenceable(144) %call)
  %capacity_ = getelementptr inbounds %"class.arrow::ArrayBuilder", ptr %this1, i32 0, i32 6
  store i64 %call2, ptr %capacity_, align 8
  %0 = load i64, ptr %committed_logical_length.addr, align 8
  %1 = load i64, ptr %open_run_length.addr, align 8
  %add = add nsw i64 %0, %1
  %length_ = getelementptr inbounds %"class.arrow::ArrayBuilder", ptr %this1, i32 0, i32 5
  store i64 %add, ptr %length_, align 8
  %2 = load i64, ptr %committed_logical_length.addr, align 8
  %committed_logical_length_ = getelementptr inbounds %"class.arrow::RunEndEncodedBuilder", ptr %this1, i32 0, i32 3
  store i64 %2, ptr %committed_logical_length_, align 8
  ret void
}

; Function Attrs: mustprogress nounwind uwtable
define noundef nonnull align 8 dereferenceable(144) ptr @_ZN5arrow20RunEndEncodedBuilder15run_end_builderEv(ptr noundef nonnull align 8 dereferenceable(176) %this) #1 align 2 {
entry:
  %this.addr = alloca ptr, align 8
  store ptr %this, ptr %this.addr, align 8
  %this1 = load ptr, ptr %this.addr, align 8
  %children_ = getelementptr inbounds %"class.arrow::ArrayBuilder", ptr %this1, i32 0, i32 7
  %call = call noundef nonnull align 8 dereferenceable(16) ptr @_ZNSt6vectorISt10shared_ptrIN5arrow12ArrayBuilderEESaIS3_EEixEm(ptr noundef nonnull align 8 dereferenceable(24) %children_, i64 noundef 0) #13
  %call2 = call noundef nonnull align 8 dereferenceable(144) ptr @_ZNKSt19__shared_ptr_accessIN5arrow12ArrayBuilderELN9__gnu_cxx12_Lock_policyE2ELb0ELb0EEdeEv(ptr noundef nonnull align 1 dereferenceable(1) %call) #13
  ret ptr %call2
}

; Function Attrs: mustprogress uwtable
define void @_ZN5arrow20RunEndEncodedBuilder5ResetEv(ptr noundef nonnull align 8 dereferenceable(176) %this) unnamed_addr #0 align 2 {
entry:
  %this.addr = alloca ptr, align 8
  store ptr %this, ptr %this.addr, align 8
  %this1 = load ptr, ptr %this.addr, align 8
  %value_run_builder_ = getelementptr inbounds %"class.arrow::RunEndEncodedBuilder", ptr %this1, i32 0, i32 2
  %0 = load ptr, ptr %value_run_builder_, align 8
  %vtable = load ptr, ptr %0, align 8
  %vfn = getelementptr inbounds ptr, ptr %vtable, i64 4
  %1 = load ptr, ptr %vfn, align 8
  call void %1(ptr noundef nonnull align 8 dereferenceable(184) %0)
  %call = call noundef nonnull align 8 dereferenceable(144) ptr @_ZN5arrow20RunEndEncodedBuilder15run_end_builderEv(ptr noundef nonnull align 8 dereferenceable(176) %this1)
  %vtable2 = load ptr, ptr %call, align 8
  %vfn3 = getelementptr inbounds ptr, ptr %vtable2, i64 4
  %2 = load ptr, ptr %vfn3, align 8
  call void %2(ptr noundef nonnull align 8 dereferenceable(144) %call)
  call void @_ZN5arrow20RunEndEncodedBuilder16UpdateDimensionsEll(ptr noundef nonnull align 8 dereferenceable(176) %this1, i64 noundef 0, i64 noundef 0)
  ret void
}