; Function Attrs: mustprogress uwtable
define void @_ZN5arrow20RunEndEncodedBuilder5ResetEv(ptr nocapture noundef nonnull align 8 dereferenceable(176) %this) unnamed_addr #3 align 2 {
entry:
  %value_run_builder_ = getelementptr inbounds i8, ptr %this, i64 160
  %0 = load ptr, ptr %value_run_builder_, align 8
  %vtable = load ptr, ptr %0, align 8
  %vfn = getelementptr inbounds i8, ptr %vtable, i64 32
  %1 = load ptr, ptr %vfn, align 8
  tail call void %1(ptr noundef nonnull align 8 dereferenceable(184) %0)
  %children_.i = getelementptr inbounds i8, ptr %this, i64 120
  %2 = load ptr, ptr %children_.i, align 8
  %3 = load ptr, ptr %2, align 8
  %vtable2 = load ptr, ptr %3, align 8
  %vfn3 = getelementptr inbounds i8, ptr %vtable2, i64 32
  %4 = load ptr, ptr %vfn3, align 8
  tail call void %4(ptr noundef nonnull align 8 dereferenceable(144) %3)
  %5 = load ptr, ptr %children_.i, align 8
  %6 = load ptr, ptr %5, align 8
  %capacity_.i.i = getelementptr inbounds i8, ptr %6, i64 112
  %7 = load i64, ptr %capacity_.i.i, align 8
  %capacity_.i = getelementptr inbounds i8, ptr %this, i64 112
  store i64 %7, ptr %capacity_.i, align 8
  %length_.i = getelementptr inbounds i8, ptr %this, i64 104
  store i64 0, ptr %length_.i, align 8
  %committed_logical_length_.i = getelementptr inbounds i8, ptr %this, i64 168
  store i64 0, ptr %committed_logical_length_.i, align 8
  ret void
}